(lp0
(lp1
F0.0
aF0.0
aF0.0
aF0.0
aa(lp2
F0.0
aF0.0
aF0.0
aF0.0
aa(lp3
F0.0
aF0.0
aF0.0
aF0.0
aa(lp4
F0.0
aF0.0
aF0.0
aF0.0
aa(lp5
F0.0
aF0.0
aF0.0
aF0.0
aa(lp6
F0.0
aF0.0
aF0.0
aF0.0
aa(lp7
F0.0
aF0.0
aF0.0
aF0.0
aa(lp8
F-4.573265711994949
aF-4.6387709231847065
aF-4.562140003010174
aF-4.6216129842329385
aa(lp9
F-4.433543720567003
aF-4.490651599925717
aF-4.53504837242702
aF-4.5188221556172845
aa(lp10
F-4.408609401100231
aF-4.2846117762710625
aF-4.339379543856863
aF-4.3079969186456335
aa(lp11
F-4.23780449284047
aF-3.9988797430992205
aF-4.2594719314061145
aF-4.158471073040559
aa(lp12
F0.0
aF0.0
aF0.0
aF0.0
aa(lp13
F0.0
aF0.0
aF0.0
aF0.0
aa(lp14
F-4.458328305731321
aF-4.524089666313588
aF-4.492326669658691
aF-4.49479822024346
aa(lp15
F-4.289002627046915
aF-4.199084073045761
aF-4.219791776159699
aF-4.202752358393674
aa(lp16
F-3.8366209166062455
aF-3.0765823040214393
aF-4.000437655932159
aF-3.7971495878070085
aa(lp17
F-3.709403397658474
aF-2.60150238994017
aF-3.5523262701854974
aF-3.5294878145298085
aa(lp18
F0.0
aF0.0
aF0.0
aF0.0
aa(lp19
F0.0
aF0.0
aF0.0
aF0.0
aa(lp20
F-4.341455420773437
aF-4.2712303004400205
aF-4.245199113375808
aF-4.2885114974366685
aa(lp21
F-3.8581030998538752
aF-3.7799870475569133
aF-3.8376327585884398
aF-3.49934414166575
aa(lp22
F-3.6127282250682873
aF-1.3902839543823236
aF-3.425188959875566
aF-3.3042155638650494
aa(lp23
F-3.2426813386273814
aF0.25034511048185737
aF-3.067166091630477
aF-3.0887363905997565
aa(lp24
F0.0
aF0.0
aF0.0
aF0.0
aa(lp25
F0.0
aF0.0
aF0.0
aF0.0
aa(lp26
F-4.058111331926921
aF-5.139894727467052
aF-4.003670528226414
aF-3.594365356871391
aa(lp27
F-3.346547400458806
aF-34.39
aF-3.343559461453719
aF-1.8027924431424454
aa(lp28
F-3.0078845237076237
aF-3.83438210718043
aF-2.9464855303320667
aF0.7192065524308583
aa(lp29
F-2.5793181441470496
aF2.352233768954164
aF-2.5141963847884203
aF-2.1627316337393454
aa(lp30
F0.0
aF0.0
aF0.0
aF0.0
aa(lp31
F0.0
aF0.0
aF0.0
aF0.0
aa(lp32
F-3.687314172763392
aF-5.057686613791768
aF-3.5869448972949933
aF-27.1
aa(lp33
F0.0
aF0.0
aF0.0
aF0.0
aa(lp34
F-1.516277938199686
aF-0.9391821503479829
aF-34.39
aF0.42470851415120603
aa(lp35
F-1.8100543492195895
aF3.3790150387139404
aF-2.461504352932936
aF-0.3769091747896005
aa(lp36
F0.0
aF0.0
aF0.0
aF0.0
aa(lp37
F0.0
aF0.0
aF0.0
aF0.0
aa(lp38
F-2.58477563154352
aF-34.39
aF-3.1295112255115316
aF-2.836170046794105
aa(lp39
F-19.0
aF-2.414207463044045
aF-1.7516612890963714
aF0.5148596538138331
aa(lp40
F-1.0865386339839425
aF-1.0131691704769343
aF-1.1797817459843165
aF3.6473433511733453
aa(lp41
F-0.8428901795209891
aF5.421036056227506
aF0.08350061948969717
aF0.5126027259719005
aa(lp42
F0.0
aF0.0
aF0.0
aF0.0
aa(lp43
F0.0
aF0.0
aF0.0
aF0.0
aa(lp44
F0.0
aF0.0
aF0.0
aF0.0
aa(lp45
F-1.1141068648392656
aF-1.1602654512206119
aF-19.0
aF1.765206780959593
aa(lp46
F-0.7591851658293837
aF-1.3170530646389162
aF-0.69728611739153
aF4.804022165057417
aa(lp47
F0.6562150343255899
aF7.346179432941318
aF-0.026210458049791774
aF2.54730636154712
aa(lp48
F0.0
aF0.0
aF0.0
aF0.0
aa(lp49
F0.0
aF0.0
aF0.0
aF0.0
aa(lp50
F0.0
aF0.0
aF0.0
aF0.0
aa(lp51
F-0.6971377400385872
aF-0.9812558114770392
aF-10.0
aF-1.1907415256859228
aa(lp52
F-0.3556816245284652
aF-34.39
aF-0.4632044996261
aF6.361977510777488
aa(lp53
F2.500489973950785
aF5.0016847751822215
aF2.1436675978017012
aF3.8230754723881666
aa(lp54
F0.0
aF0.0
aF0.0
aF0.0
aa(lp55
F0.0
aF0.0
aF0.0
aF0.0
aa(lp56
F-27.1
aF-1.9813482572953758
aF-2.017894274917254
aF-1.9631203725114752
aa(lp57
F-1.298568067058437
aF-1.3739226765667558
aF-1.2966869568841943
aF-27.1
aa(lp58
F0.0
aF0.0
aF0.0
aF0.0
aa(lp59
F1.7533553643653887
aF9.999999999667697
aF-40.951
aF6.117794050519152
aa(lp60
F0.0
aF0.0
aF0.0
aF0.0
aa(lp61
F0.0
aF0.0
aF0.0
aF0.0
aa(lp62
F-1.738152798433934
aF-1.124215644631159
aF-1.7223058612058522
aF-1.667453182131102
aa(lp63
F-2.8474381491329
aF-0.9848017774414957
aF-1.4631195814941822
aF-10.0
aa(lp64
F0.0
aF0.0
aF0.0
aF0.0
aa(lp65
F0.0
aF0.0
aF0.0
aF0.0
aa(lp66
F0.0
aF0.0
aF0.0
aF0.0
aa(lp67
F0.0
aF0.0
aF0.0
aF0.0
aa(lp68
F-1.4109968653168368
aF-1.3506372850967705
aF-1.4310338607189457
aF1.2515818702076706
aa(lp69
F-1.094158674303944
aF3.18570833811508
aF-1.1385940724666535
aF-19.0
aa(lp70
F0.0
aF0.0
aF0.0
aF0.0
aa(lp71
F9.999999999493518
aF1.1709534261395385
aF-34.39
aF4.80910039428987
aa(lp72
F0.0
aF0.0
aF0.0
aF0.0
aa(lp73
F0.0
aF0.0
aF0.0
aF0.0
aa(lp74
F-1.157831351625276
aF-1.1512857914610761
aF-1.1688089381373543
aF0.1008279231804955
aa(lp75
F-0.19108082674722504
aF-0.5360942295594937
aF-0.9905505756467508
aF3.923268132325714
aa(lp76
F-34.39
aF-0.2844655785902574
aF0.7293921731283697
aF6.134840553082686
aa(lp77
F8.274248246667085
aF1.6197330076510739
aF2.029163644363911
aF4.133264510689528
aa(lp78
F0.0
aF0.0
aF0.0
aF0.0
aa(lp79
F0.0
aF0.0
aF0.0
aF0.0
aa(lp80
F-1.2362339924514512
aF-1.217419857063179
aF-1.3311988764778713
aF1.240665838042261
aa(lp81
F2.8914519168685
aF-1.071770597904116
aF-1.07628719833306
aF-0.8545836792214346
aa(lp82
F1.9434954500527668
aF-0.8934075515145836
aF-0.8291392264433977
aF-0.7196932075359179
aa(lp83
F6.342013389182621
aF0.0070594205639664676
aF-0.5476147158549001
aF0.08683637924463528
aa(lp84
F0.0
aF0.0
aF0.0
aF0.0
aa(lp85
F0.0
aF0.0
aF0.0
aF0.0
aa(lp86
F-1.5806259610304114
aF-1.8099721453642652
aF-1.627694280641966
aF-0.3209701321222305
aa(lp87
F2.394429515097404
aF-1.3778006556764513
aF-1.3752184946514914
aF-1.3893297338385844
aa(lp88
F-0.4638588484753875
aF-1.234265360430907
aF-1.1616674429149434
aF-1.0701975504068955
aa(lp89
F4.6638663976975545
aF-0.6948994334971565
aF-1.111557229307606
aF-0.874713082351
aa(lp90
F0.0
aF0.0
aF0.0
aF0.0
aa(lp91
F0.0
aF0.0
aF0.0
aF0.0
aa(lp92
F-2.093384378961248
aF-2.1482593764435927
aF-2.2121320854484
aF-1.60364634810986
aa(lp93
F0.6603531344402321
aF-1.7806368165354718
aF-1.818191593768392
aF-1.7574605713501712
aa(lp94
F-1.4304055946886536
aF-1.5440188131714057
aF-1.538841658689276
aF0.06938830823785277
aa(lp95
F2.4319844286132306
aF-1.2516902267956729
aF-1.226720212780712
aF-1.3596692898602063
aa(lp96
F0.0
aF0.0
aF0.0
aF0.0
aa(lp97
F0.0
aF0.0
aF0.0
aF0.0
aa(lp98
F-2.460036847453632
aF-2.4199070386185793
aF-2.476343460066771
aF-2.4025704381033997
aa(lp99
F-1.9330716973218085
aF-2.3273432951839066
aF-2.2802061137279748
aF-2.250870717527014
aa(lp100
F0.0
aF0.0
aF0.0
aF0.0
aa(lp101
F-0.4394012248614667
aF-1.542293229794521
aF-1.526636210791939
aF-1.5835035355137197
aa(lp102
F0.0
aF0.0
aF0.0
aF0.0
aa(lp103
F0.0
aF0.0
aF0.0
aF0.0
aa(lp104
F0.0
aF0.0
aF0.0
aF0.0
aa(lp105
F0.0
aF0.0
aF0.0
aF0.0
aa(lp106
F0.0
aF0.0
aF0.0
aF0.0
aa(lp107
F0.0
aF0.0
aF0.0
aF0.0
aa(lp108
F0.0
aF0.0
aF0.0
aF0.0
aa.